target datalayout = "e-m:e-p270:32:32-p271:32:32-p272:64:64-i64:64-i128:128-f80:128-n8:16:32:64-S128"
target triple = "x86_64-pc-linux-gnu"

%struct.CPpmd7z_RangeDec = type { %struct.IPpmd7_RangeDec, i32, i32, i32, i32, ptr }
%struct.IPpmd7_RangeDec = type { ptr, ptr, ptr }
%struct.IByteIn = type { ptr, ptr }

; Function Attrs: nounwind uwtable
define internal i32 @Ppmd_RangeDec_Init(ptr noundef %0) #0 {
  %2 = alloca ptr, align 8
  %3 = alloca i32, align 4
  store ptr %0, ptr %2, align 8, !tbaa !4
  call void @llvm.lifetime.start.p0(i64 4, ptr %3) #6
  %4 = load ptr, ptr %2, align 8, !tbaa !4
  %5 = getelementptr inbounds nuw %struct.CPpmd7z_RangeDec, ptr %4, i32 0, i32 4
  store i32 0, ptr %5, align 4, !tbaa !37
  %6 = load ptr, ptr %2, align 8, !tbaa !4
  %7 = getelementptr inbounds nuw %struct.CPpmd7z_RangeDec, ptr %6, i32 0, i32 3
  store i32 0, ptr %7, align 8, !tbaa !102
  %8 = load ptr, ptr %2, align 8, !tbaa !4
  %9 = getelementptr inbounds nuw %struct.CPpmd7z_RangeDec, ptr %8, i32 0, i32 1
  store i32 -1, ptr %9, align 8, !tbaa !103
  store i32 0, ptr %3, align 4, !tbaa !15
  br label %10

10:                                               ; preds = %31, %1
  %11 = load i32, ptr %3, align 4, !tbaa !15
  %12 = icmp ult i32 %11, 4
  br i1 %12, label %13, label %34

13:                                               ; preds = %10
  %14 = load ptr, ptr %2, align 8, !tbaa !4
  %15 = getelementptr inbounds nuw %struct.CPpmd7z_RangeDec, ptr %14, i32 0, i32 2
  %16 = load i32, ptr %15, align 4, !tbaa !101
  %17 = shl i32 %16, 8
  %18 = load ptr, ptr %2, align 8, !tbaa !4
  %19 = getelementptr inbounds nuw %struct.CPpmd7z_RangeDec, ptr %18, i32 0, i32 5
  %20 = load ptr, ptr %19, align 8, !tbaa !33
  %21 = getelementptr inbounds nuw %struct.IByteIn, ptr %20, i32 0, i32 1
  %22 = load ptr, ptr %21, align 8, !tbaa !34
  %23 = load ptr, ptr %2, align 8, !tbaa !4
  %24 = getelementptr inbounds nuw %struct.CPpmd7z_RangeDec, ptr %23, i32 0, i32 5
  %25 = load ptr, ptr %24, align 8, !tbaa !33
  %26 = call zeroext i8 %22(ptr noundef %25)
  %27 = zext i8 %26 to i32
  %28 = or i32 %17, %27
  %29 = load ptr, ptr %2, align 8, !tbaa !4
  %30 = getelementptr inbounds nuw %struct.CPpmd7z_RangeDec, ptr %29, i32 0, i32 2
  store i32 %28, ptr %30, align 4, !tbaa !101
  br label %31

31:                                               ; preds = %13
  %32 = load i32, ptr %3, align 4, !tbaa !15
  %33 = add i32 %32, 1
  store i32 %33, ptr %3, align 4, !tbaa !15
  br label %10, !llvm.loop !104

34:                                               ; preds = %10
  %35 = load ptr, ptr %2, align 8, !tbaa !4
  %36 = getelementptr inbounds nuw %struct.CPpmd7z_RangeDec, ptr %35, i32 0, i32 2
  %37 = load i32, ptr %36, align 4, !tbaa !101
  %38 = icmp ult i32 %37, -1
  %39 = zext i1 %38 to i32
  call void @llvm.lifetime.end.p0(i64 4, ptr %3) #6
  ret i32 %39
}

; Function Attrs: nounwind uwtable
define internal i32 @Ppmd7z_RangeDec_Init(ptr noundef %0) #0 {
  %2 = alloca i32, align 4
  %3 = alloca ptr, align 8
  store ptr %0, ptr %3, align 8, !tbaa !4
  %4 = load ptr, ptr %3, align 8, !tbaa !4
  %5 = getelementptr inbounds nuw %struct.CPpmd7z_RangeDec, ptr %4, i32 0, i32 5
  %6 = load ptr, ptr %5, align 8, !tbaa !33
  %7 = getelementptr inbounds nuw %struct.IByteIn, ptr %6, i32 0, i32 1
  %8 = load ptr, ptr %7, align 8, !tbaa !34
  %9 = load ptr, ptr %3, align 8, !tbaa !4
  %10 = getelementptr inbounds nuw %struct.CPpmd7z_RangeDec, ptr %9, i32 0, i32 5
  %11 = load ptr, ptr %10, align 8, !tbaa !33
  %12 = call zeroext i8 %8(ptr noundef %11)
  %13 = zext i8 %12 to i32
  %14 = icmp ne i32 %13, 0
  br i1 %14, label %15, label %16

15:                                               ; preds = %1
  store i32 0, ptr %2, align 4
  br label %19

16:                                               ; preds = %1
  %17 = load ptr, ptr %3, align 8, !tbaa !4
  %18 = call i32 @Ppmd_RangeDec_Init(ptr noundef %17)
  store i32 %18, ptr %2, align 4
  br label %19

19:                                               ; preds = %16, %15
  %20 = load i32, ptr %2, align 4
  ret i32 %20
}