; Function Attrs: nounwind uwtable
define internal range(i32 0, 2) i32 @Ppmd7z_RangeDec_Init(ptr noundef captures(none) %0) #4 {
  %2 = getelementptr inbounds nuw i8, ptr %0, i64 40
  %3 = load ptr, ptr %2, align 8, !tbaa !31
  %4 = getelementptr inbounds nuw i8, ptr %3, i64 8
  %5 = load ptr, ptr %4, align 8, !tbaa !32
  %6 = tail call zeroext i8 %5(ptr noundef %3) #13
  %.not = icmp eq i8 %6, 0
  br i1 %.not, label %7, label %24

7:                                                ; preds = %1
  %8 = getelementptr inbounds nuw i8, ptr %0, i64 36
  store i32 0, ptr %8, align 4, !tbaa !35
  %9 = getelementptr inbounds nuw i8, ptr %0, i64 32
  store i32 0, ptr %9, align 8, !tbaa !36
  %10 = getelementptr inbounds nuw i8, ptr %0, i64 24
  store i32 -1, ptr %10, align 8, !tbaa !37
  %11 = getelementptr inbounds nuw i8, ptr %0, i64 28
  %.pre.i = load i32, ptr %11, align 4, !tbaa !38
  br label %12

12:                                               ; preds = %12, %7
  %13 = phi i32 [ %.pre.i, %7 ], [ %20, %12 ]
  %.09.i = phi i32 [ 0, %7 ], [ %21, %12 ]
  %14 = shl i32 %13, 8
  %15 = load ptr, ptr %2, align 8, !tbaa !31
  %16 = getelementptr inbounds nuw i8, ptr %15, i64 8
  %17 = load ptr, ptr %16, align 8, !tbaa !32
  %18 = tail call zeroext i8 %17(ptr noundef %15) #13
  %19 = zext i8 %18 to i32
  %20 = or disjoint i32 %14, %19
  store i32 %20, ptr %11, align 4, !tbaa !38
  %21 = add nuw nsw i32 %.09.i, 1
  %exitcond.not.i = icmp eq i32 %21, 4
  br i1 %exitcond.not.i, label %Ppmd_RangeDec_Init.exit, label %12, !llvm.loop !39

Ppmd_RangeDec_Init.exit:                          ; preds = %12
  %22 = icmp ne i32 %20, -1
  %23 = zext i1 %22 to i32
  br label %24

24:                                               ; preds = %1, %Ppmd_RangeDec_Init.exit
  %.0 = phi i32 [ %23, %Ppmd_RangeDec_Init.exit ], [ 0, %1 ]
  ret i32 %.0
}